target datalayout = "e-m:e-p270:32:32-p271:32:32-p272:64:64-i64:64-i128:128-f80:128-n8:16:32:64-S128"
target triple = "x86_64-pc-linux-gnu"

%"class.base::BasicStringPiece" = type { ptr, i64 }

@_ZTVN4base30LocalPersistentMemoryAllocatorE = unnamed_addr constant { [4 x ptr] } { [4 x ptr] [ptr null, ptr @_ZTIN4base30LocalPersistentMemoryAllocatorE, ptr @_ZN4base30LocalPersistentMemoryAllocatorD1Ev, ptr @_ZN4base30LocalPersistentMemoryAllocatorD0Ev] }, align 8

; Function Attrs: mustprogress nounwind uwtable
define noundef ptr @_ZN4base30LocalPersistentMemoryAllocator19AllocateLocalMemoryEm(i64 noundef %0) #0 align 2 {
  %2 = alloca i64, align 8
  %3 = alloca ptr, align 8
  store i64 %0, ptr %2, align 8, !tbaa !45
  call void @llvm.lifetime.start.p0(i64 8, ptr %3) #12
  %4 = load i64, ptr %2, align 8, !tbaa !45
  %5 = call ptr @mmap(ptr noundef null, i64 noundef %4, i32 noundef 3, i32 noundef 33, i32 noundef -1, i64 noundef 0) #12
  store ptr %5, ptr %3, align 8, !tbaa !44
  %6 = load ptr, ptr %3, align 8, !tbaa !44
  call void @llvm.lifetime.end.p0(i64 8, ptr %3) #12
  ret ptr %6
}

; Function Attrs: mustprogress uwtable
define void @_ZN4base30LocalPersistentMemoryAllocatorC2EmmNS_16BasicStringPieceINSt7__cxx1112basic_stringIcSt11char_traitsIcESaIcEEEEE(ptr noundef nonnull align 8 dereferenceable(48) %0, i64 noundef %1, i64 noundef %2, ptr %3, i64 %4) unnamed_addr #1 align 2 {
  %6 = alloca %"class.base::BasicStringPiece", align 8
  %7 = alloca ptr, align 8
  %8 = alloca i64, align 8
  %9 = alloca i64, align 8
  %10 = alloca %"class.base::BasicStringPiece", align 8
  %11 = getelementptr inbounds nuw { ptr, i64 }, ptr %6, i32 0, i32 0
  store ptr %3, ptr %11, align 8
  %12 = getelementptr inbounds nuw { ptr, i64 }, ptr %6, i32 0, i32 1
  store i64 %4, ptr %12, align 8
  store ptr %0, ptr %7, align 8, !tbaa !86
  store i64 %1, ptr %8, align 8, !tbaa !45
  store i64 %2, ptr %9, align 8, !tbaa !45
  %13 = load ptr, ptr %7, align 8
  %14 = load i64, ptr %8, align 8, !tbaa !45
  %15 = call noundef ptr @_ZN4base30LocalPersistentMemoryAllocator19AllocateLocalMemoryEm(i64 noundef %14)
  %16 = load i64, ptr %8, align 8, !tbaa !45
  %17 = load i64, ptr %9, align 8, !tbaa !45
  call void @llvm.memcpy.p0.p0.i64(ptr align 8 %10, ptr align 8 %6, i64 16, i1 false), !tbaa.struct !88
  call void @_ZN4base25PersistentMemoryAllocatorC2EPvmmmNS_16BasicStringPieceINSt7__cxx1112basic_stringIcSt11char_traitsIcESaIcEEEEEb(ptr noundef nonnull align 8 dereferenceable(48) %13, ptr noundef %15, i64 noundef %16, i64 noundef 0, i64 noundef %17, ptr noundef byval(%"class.base::BasicStringPiece") align 8 %10, i1 noundef zeroext false)
  store ptr getelementptr inbounds inrange(-16, 16) ({ [4 x ptr] }, ptr @_ZTVN4base30LocalPersistentMemoryAllocatorE, i32 0, i32 0, i32 2), ptr %13, align 8, !tbaa !47
  ret void
}