; Function Attrs: mustprogress uwtable
define void @_ZN4base30LocalPersistentMemoryAllocatorC2EmmNS_16BasicStringPieceINSt7__cxx1112basic_stringIcSt11char_traitsIcESaIcEEEEE(ptr noundef nonnull align 8 captures(none) dereferenceable(48) initializes((0, 26), (32, 48)) %0, i64 noundef %1, i64 noundef %2, ptr %3, i64 %4) unnamed_addr #3 align 2 {
  %6 = alloca %"class.base::BasicStringPiece", align 8
  %7 = tail call noundef ptr @mmap(ptr noundef null, i64 noundef %1, i32 noundef 3, i32 noundef 33, i32 noundef -1, i64 noundef 0) #18
  store ptr %3, ptr %6, align 8, !tbaa !69
  %.sroa.2.0..sroa_idx = getelementptr inbounds nuw i8, ptr %6, i64 8
  store i64 %4, ptr %.sroa.2.0..sroa_idx, align 8, !tbaa !54
  tail call void @_ZN4base25PersistentMemoryAllocatorC2EPvmmmNS_16BasicStringPieceINSt7__cxx1112basic_stringIcSt11char_traitsIcESaIcEEEEEb(ptr noundef nonnull align 8 dereferenceable(48) %0, ptr noundef %7, i64 noundef %1, i64 noundef 0, i64 noundef %2, ptr noundef nonnull byval(%"class.base::BasicStringPiece") align 8 %6, i1 noundef zeroext false)
  store ptr getelementptr inbounds nuw inrange(-16, 16) (i8, ptr @_ZTVN4base30LocalPersistentMemoryAllocatorE, i64 16), ptr %0, align 8, !tbaa !30
  ret void
}